target datalayout = "e-m:e-p270:32:32-p271:32:32-p272:64:64-i64:64-i128:128-f80:128-n8:16:32:64-S128"
target triple = "x86_64-pc-linux-gnu"

%"struct.ceres::internal::Cell" = type { i32, i32 }

; Function Attrs: mustprogress nounwind uwtable
define hidden noundef zeroext i1 @_ZN5ceres8internal12CellLessThanERKNS0_4CellES3_(ptr noundef nonnull align 4 dereferenceable(8) %0, ptr noundef nonnull align 4 dereferenceable(8) %1) #0 {
  %3 = alloca i1, align 1
  %4 = alloca ptr, align 8
  %5 = alloca ptr, align 8
  store ptr %0, ptr %4, align 8, !tbaa !3
  store ptr %1, ptr %5, align 8, !tbaa !3
  %6 = load ptr, ptr %4, align 8, !tbaa !3
  %7 = getelementptr inbounds nuw %"struct.ceres::internal::Cell", ptr %6, i32 0, i32 0
  %8 = load i32, ptr %7, align 4, !tbaa !8
  %9 = load ptr, ptr %5, align 8, !tbaa !3
  %10 = getelementptr inbounds nuw %"struct.ceres::internal::Cell", ptr %9, i32 0, i32 0
  %11 = load i32, ptr %10, align 4, !tbaa !8
  %12 = icmp eq i32 %8, %11
  br i1 %12, label %13, label %21

13:                                               ; preds = %2
  %14 = load ptr, ptr %4, align 8, !tbaa !3
  %15 = getelementptr inbounds nuw %"struct.ceres::internal::Cell", ptr %14, i32 0, i32 1
  %16 = load i32, ptr %15, align 4, !tbaa !11
  %17 = load ptr, ptr %5, align 8, !tbaa !3
  %18 = getelementptr inbounds nuw %"struct.ceres::internal::Cell", ptr %17, i32 0, i32 1
  %19 = load i32, ptr %18, align 4, !tbaa !11
  %20 = icmp slt i32 %16, %19
  store i1 %20, ptr %3, align 1
  br label %29

21:                                               ; preds = %2
  %22 = load ptr, ptr %4, align 8, !tbaa !3
  %23 = getelementptr inbounds nuw %"struct.ceres::internal::Cell", ptr %22, i32 0, i32 0
  %24 = load i32, ptr %23, align 4, !tbaa !8
  %25 = load ptr, ptr %5, align 8, !tbaa !3
  %26 = getelementptr inbounds nuw %"struct.ceres::internal::Cell", ptr %25, i32 0, i32 0
  %27 = load i32, ptr %26, align 4, !tbaa !8
  %28 = icmp slt i32 %24, %27
  store i1 %28, ptr %3, align 1
  br label %29

29:                                               ; preds = %21, %13
  %30 = load i1, ptr %3, align 1
  ret i1 %30
}